; Function Attrs: mustprogress nofree norecurse nosync nounwind willreturn memory(argmem: readwrite) uwtable
define dso_local void @_ZN4node4quic13SessionTicketC2EONS0_5StoreES3_(ptr nocapture noundef nonnull writeonly align 8 dereferenceable(88) %this, ptr nocapture noundef nonnull align 8 dereferenceable(40) %ticket, ptr nocapture noundef nonnull align 8 dereferenceable(40) %transport_params) unnamed_addr #3 align 2 {
entry:
  store ptr getelementptr inbounds ({ [10 x ptr] }, ptr @_ZTVN4node4quic13SessionTicketE, i64 0, i32 0, i64 2), ptr %this, align 8
  %ticket_ = getelementptr inbounds i8, ptr %this, i64 8
  store ptr getelementptr inbounds ({ [10 x ptr] }, ptr @_ZTVN4node4quic5StoreE, i64 0, i32 0, i64 2), ptr %ticket_, align 8
  %store_.i = getelementptr inbounds i8, ptr %this, i64 16
  %store_2.i = getelementptr inbounds i8, ptr %ticket, i64 8
  %0 = load ptr, ptr %store_2.i, align 8
  store ptr %0, ptr %store_.i, align 8
  %_M_refcount.i.i.i = getelementptr inbounds i8, ptr %this, i64 24
  store ptr null, ptr %_M_refcount.i.i.i, align 8
  %_M_refcount4.i.i.i = getelementptr inbounds i8, ptr %ticket, i64 16
  %1 = load ptr, ptr %_M_refcount4.i.i.i, align 8
  store ptr null, ptr %_M_refcount4.i.i.i, align 8
  store ptr %1, ptr %_M_refcount.i.i.i, align 8
  store ptr null, ptr %store_2.i, align 8
  %length_.i = getelementptr inbounds i8, ptr %this, i64 32
  %length_3.i = getelementptr inbounds i8, ptr %ticket, i64 24
  tail call void @llvm.memcpy.p0.p0.i64(ptr noundef nonnull align 8 dereferenceable(16) %length_.i, ptr noundef nonnull align 8 dereferenceable(16) %length_3.i, i64 16, i1 false)
  %transport_params_ = getelementptr inbounds i8, ptr %this, i64 48
  store ptr getelementptr inbounds ({ [10 x ptr] }, ptr @_ZTVN4node4quic5StoreE, i64 0, i32 0, i64 2), ptr %transport_params_, align 8
  %store_.i1 = getelementptr inbounds i8, ptr %this, i64 56
  %store_2.i2 = getelementptr inbounds i8, ptr %transport_params, i64 8
  %2 = load ptr, ptr %store_2.i2, align 8
  store ptr %2, ptr %store_.i1, align 8
  %_M_refcount.i.i.i3 = getelementptr inbounds i8, ptr %this, i64 64
  store ptr null, ptr %_M_refcount.i.i.i3, align 8
  %_M_refcount4.i.i.i4 = getelementptr inbounds i8, ptr %transport_params, i64 16
  %3 = load ptr, ptr %_M_refcount4.i.i.i4, align 8
  store ptr null, ptr %_M_refcount4.i.i.i4, align 8
  store ptr %3, ptr %_M_refcount.i.i.i3, align 8
  store ptr null, ptr %store_2.i2, align 8
  %length_.i5 = getelementptr inbounds i8, ptr %this, i64 72
  %length_3.i6 = getelementptr inbounds i8, ptr %transport_params, i64 24
  tail call void @llvm.memcpy.p0.p0.i64(ptr noundef nonnull align 8 dereferenceable(16) %length_.i5, ptr noundef nonnull align 8 dereferenceable(16) %length_3.i6, i64 16, i1 false)
  ret void
}